(dp0
S'Opf26KyFALb6ms8YCbhFI0wEJVaUbv'
p1
ccopy_reg
_reconstructor
p2
(c__main__
Producer
p3
c__builtin__
object
p4
Ntp5
Rp6
(dp7
S'access_time'
p8
cdatetime
datetime
p9
(S'\x07\xde\x04\x01\x0e\x04\x11\x03;/'
p10
tp11
Rp12
sS'producer_id'
p13
g1
sS'broker_address'
p14
S'ws://localhost:52918'
p15
sS'lat'
p16
S'54.597'
p17
sS'sensors'
p18
(lp19
S'camera'
p20
aS'microphone'
p21
aS'location'
p22
asS'lng'
p23
S'-5.93'
p24
sbsS'Bba4t4WVvEI04J4FjqiPVArVogQyGK'
p25
g2
(g3
g4
Ntp26
Rp27
(dp28
g8
g9
(S'\x07\xde\x04\x01\x0e\x04\x11\x03I1'
p29
tp30
Rp31
sg13
g25
sg14
S'ws://localhost:52898'
p32
sg16
S'55.7500'
p33
sg18
(lp34
S'camera'
p35
aS'microphone'
p36
aS'location'
p37
asg23
S'37.6167'
p38
sbsS'QjKH4zV9a9Dyk07REuPppRj9KbaFe5'
p39
g2
(g3
g4
Ntp40
Rp41
(dp42
g8
g9
(S'\x07\xde\x04\x01\x0e\x04\x12\x01\x8e\xc1'
p43
tp44
Rp45
sg13
g39
sg14
S'ws://localhost:52928'
p46
sg16
S'55.75'
p47
sg18
(lp48
S'camera'
p49
aS'microphone'
p50
aS'location'
p51
asg23
S'37.61'
p52
sbsS'Wot37mUgtBbBiOepC96UU0vOuVEHN5'
p53
g2
(g3
g4
Ntp54
Rp55
(dp56
g8
g9
(S'\x07\xde\x04\x01\x0e\x04\x14\x05\xf9L'
p57
tp58
Rp59
sg13
g53
sg14
S'ws://localhost:52904'
p60
sg16
S'55.7600'
p61
sg18
(lp62
S'camera'
p63
aS'microphone'
p64
aS'location'
p65
asg23
S'37.6267'
p66
sbs.