(dp0
S'Opf26KyFALb6ms8YCbhFI0wEJVaUbv'
p1
ccopy_reg
_reconstructor
p2
(c__main__
Producer
p3
c__builtin__
object
p4
Ntp5
Rp6
(dp7
S'access_time'
p8
cdatetime
datetime
p9
(S'\x07\xde\x04\x01\x0e$%\x0c\x08\x1d'
p10
tp11
Rp12
sS'producer_id'
p13
g1
sS'broker_address'
p14
S'ws://localhost:52918'
p15
sS'lat'
p16
S'54.597'
p17
sS'lng'
p18
S'-5.93'
p19
sS'sensors'
p20
(lp21
S'camera'
p22
aS'microphone'
p23
aS'location'
p24
asbsS'Bba4t4WVvEI04J4FjqiPVArVogQyGK'
p25
g2
(g3
g4
Ntp26
Rp27
(dp28
g8
g9
(S'\x07\xde\x04\x01\x0e$%\n\x9aP'
p29
tp30
Rp31
sg13
g25
sg14
S'ws://localhost:52898'
p32
sg16
S'55.7500'
p33
sg18
S'37.6167'
p34
sg20
(lp35
S'camera'
p36
aS'microphone'
p37
aS'location'
p38
asbsS'QjKH4zV9a9Dyk07REuPppRj9KbaFe5'
p39
g2
(g3
g4
Ntp40
Rp41
(dp42
g8
g9
(S'\x07\xde\x04\x01\x0e$#\x08A\xee'
p43
tp44
Rp45
sg13
g39
sg14
S'ws://localhost:52928'
p46
sg16
S'55.75'
p47
sg18
S'37.61'
p48
sg20
(lp49
S'camera'
p50
aS'microphone'
p51
aS'location'
p52
asbsS'Wot37mUgtBbBiOepC96UU0vOuVEHN5'
p53
g2
(g3
g4
Ntp54
Rp55
(dp56
g8
g9
(S'\x07\xde\x04\x01\x0e$%\x0c\x16{'
p57
tp58
Rp59
sg13
g53
sg14
S'ws://localhost:52904'
p60
sg16
S'55.7600'
p61
sg18
S'37.6267'
p62
sg20
(lp63
S'camera'
p64
aS'microphone'
p65
aS'location'
p66
asbs.