(dp0
S'noWdT0DCceAgnwKeuzfz8PMwjwDno7'
p1
ccopy_reg
_reconstructor
p2
(c__main__
Producer
p3
c__builtin__
object
p4
Ntp5
Rp6
(dp7
S'access_time'
p8
cdatetime
datetime
p9
(S'\x07\xde\x04\x01\x01+\x0e\x0cy\x91'
p10
tp11
Rp12
sS'producer_id'
p13
g1
sS'broker_address'
p14
S'ws://localhost:60738'
p15
sS'lat'
p16
S'55.75'
p17
sS'sensors'
p18
(lp19
S'camera'
p20
aS'microphone'
p21
aS'location'
p22
asS'lng'
p23
S'37.61'
p24
sbs.