(dp0
S'uhxINT0T5gN6q7jo7oVH57nlvuFFsL'
p1
ccopy_reg
_reconstructor
p2
(c__main__
Producer
p3
c__builtin__
object
p4
Ntp5
Rp6
(dp7
S'access_time'
p8
cdatetime
datetime
p9
(S'\x07\xde\x04\x01\x11\x01\x02\x05\x0f&'
p10
tp11
Rp12
sS'producer_id'
p13
g1
sS'broker_address'
p14
S'ws://localhost:45328'
p15
sS'lat'
p16
S'54.597'
p17
sS'sensors'
p18
(lp19
S'camera'
p20
aS'microphone'
p21
aS'location'
p22
aS'elephantdetector'
p23
asS'lng'
p24
S'-5.93'
p25
sbs.